target datalayout = "e-m:e-p270:32:32-p271:32:32-p272:64:64-i64:64-i128:128-f80:128-n8:16:32:64-S128"
target triple = "x86_64-pc-linux-gnu"

@.str.3 = private unnamed_addr constant [14 x i8] c"xlogarchive.c\00", align 1
@wal_segment_size = external global i32, align 4
@.str.10 = private unnamed_addr constant [2 x i8] c"r\00", align 1
@.str.11 = private unnamed_addr constant [18 x i8] c"executing %s \22%s\22\00", align 1
@__func__.ExecuteRecoveryCommand = private unnamed_addr constant [23 x i8] c"ExecuteRecoveryCommand\00", align 1
@.str.12 = private unnamed_addr constant [12 x i8] c"%s \22%s\22: %s\00", align 1
@.str.18 = private unnamed_addr constant [13 x i8] c"%08X%08X%08X\00", align 1
@my_wait_event_info = external global ptr, align 8

; Function Attrs: inlinehint nounwind uwtable
define internal void @pgstat_report_wait_end() #7 {
  %1 = load ptr, ptr @my_wait_event_info, align 8
  store volatile i32 0, ptr %1, align 4
  ret void
}

; Function Attrs: inlinehint nounwind uwtable
define internal void @pgstat_report_wait_start(i32 noundef %0) #7 {
  %2 = alloca i32, align 4
  store i32 %0, ptr %2, align 4
  %3 = load i32, ptr %2, align 4
  %4 = load ptr, ptr @my_wait_event_info, align 8
  store volatile i32 %3, ptr %4, align 4
  ret void
}

; Function Attrs: inlinehint nounwind uwtable
define internal void @XLogFileName(ptr noundef %0, i32 noundef %1, i64 noundef %2, i32 noundef %3) #7 {
  %5 = alloca ptr, align 8
  %6 = alloca i32, align 4
  %7 = alloca i64, align 8
  %8 = alloca i32, align 4
  store ptr %0, ptr %5, align 8
  store i32 %1, ptr %6, align 4
  store i64 %2, ptr %7, align 8
  store i32 %3, ptr %8, align 4
  %9 = load ptr, ptr %5, align 8
  %10 = load i32, ptr %6, align 4
  %11 = load i64, ptr %7, align 8
  %12 = load i32, ptr %8, align 4
  %13 = sext i32 %12 to i64
  %14 = udiv i64 4294967296, %13
  %15 = udiv i64 %11, %14
  %16 = trunc i64 %15 to i32
  %17 = load i64, ptr %7, align 8
  %18 = load i32, ptr %8, align 4
  %19 = sext i32 %18 to i64
  %20 = udiv i64 4294967296, %19
  %21 = urem i64 %17, %20
  %22 = trunc i64 %21 to i32
  %23 = call i32 (ptr, i64, ptr, ...) @pg_snprintf(ptr noundef %9, i64 noundef 64, ptr noundef @.str.18, i32 noundef %10, i32 noundef %16, i32 noundef %22)
  ret void
}

; Function Attrs: nounwind uwtable
define dso_local void @ExecuteRecoveryCommand(ptr noundef %0, ptr noundef %1, i1 noundef zeroext %2, i32 noundef %3) #0 {
  %5 = alloca ptr, align 8
  %6 = alloca ptr, align 8
  %7 = alloca i8, align 1
  %8 = alloca i32, align 4
  %9 = alloca ptr, align 8
  %10 = alloca [1024 x i8], align 16
  %11 = alloca i32, align 4
  %12 = alloca i64, align 8
  %13 = alloca i64, align 8
  %14 = alloca i32, align 4
  store ptr %0, ptr %5, align 8
  store ptr %1, ptr %6, align 8
  %15 = zext i1 %2 to i8
  store i8 %15, ptr %7, align 1
  store i32 %3, ptr %8, align 4
  call void @llvm.lifetime.start.p0(i64 8, ptr %9) #10
  call void @llvm.lifetime.start.p0(i64 1024, ptr %10) #10
  call void @llvm.lifetime.start.p0(i64 4, ptr %11) #10
  call void @llvm.lifetime.start.p0(i64 8, ptr %12) #10
  call void @llvm.lifetime.start.p0(i64 8, ptr %13) #10
  call void @llvm.lifetime.start.p0(i64 4, ptr %14) #10
  call void @GetOldestRestartPoint(ptr noundef %13, ptr noundef %14)
  %16 = load i64, ptr %13, align 8
  %17 = load i32, ptr @wal_segment_size, align 4
  %18 = sext i32 %17 to i64
  %19 = udiv i64 %16, %18
  store i64 %19, ptr %12, align 8
  %20 = getelementptr inbounds [1024 x i8], ptr %10, i64 0, i64 0
  %21 = load i32, ptr %14, align 4
  %22 = load i64, ptr %12, align 8
  %23 = load i32, ptr @wal_segment_size, align 4
  call void @XLogFileName(ptr noundef %20, i32 noundef %21, i64 noundef %22, i32 noundef %23)
  %24 = load ptr, ptr %5, align 8
  %25 = load ptr, ptr %6, align 8
  %26 = getelementptr inbounds [1024 x i8], ptr %10, i64 0, i64 0
  %27 = call ptr (ptr, ptr, ptr, ...) @replace_percent_placeholders(ptr noundef %24, ptr noundef %25, ptr noundef @.str.10, ptr noundef %26)
  store ptr %27, ptr %9, align 8
  br label %28

28:                                               ; preds = %4
  br i1 false, label %29, label %31

29:                                               ; preds = %28
  %30 = call zeroext i1 @errstart_cold(i32 noundef 12, ptr noundef null) #13
  br i1 %30, label %33, label %37

31:                                               ; preds = %28
  %32 = call zeroext i1 @errstart(i32 noundef 12, ptr noundef null)
  br i1 %32, label %33, label %37

33:                                               ; preds = %31, %29
  %34 = load ptr, ptr %6, align 8
  %35 = load ptr, ptr %5, align 8
  %36 = call i32 (ptr, ...) @errmsg_internal(ptr noundef @.str.11, ptr noundef %34, ptr noundef %35)
  call void @errfinish(ptr noundef @.str.3, i32 noundef 323, ptr noundef @__func__.ExecuteRecoveryCommand)
  br label %37

37:                                               ; preds = %33, %31, %29
  br label %38

38:                                               ; preds = %37
  br label %39

39:                                               ; preds = %38
  %40 = call i32 @fflush(ptr noundef null)
  %41 = load i32, ptr %8, align 4
  call void @pgstat_report_wait_start(i32 noundef %41)
  %42 = load ptr, ptr %9, align 8
  %43 = call i32 @system(ptr noundef %42)
  store i32 %43, ptr %11, align 4
  call void @pgstat_report_wait_end()
  %44 = load ptr, ptr %9, align 8
  call void @pfree(ptr noundef %44)
  %45 = load i32, ptr %11, align 4
  %46 = icmp ne i32 %45, 0
  br i1 %46, label %47, label %88

47:                                               ; preds = %39
  br label %48

48:                                               ; preds = %47
  br i1 false, label %49, label %69

49:                                               ; preds = %48
  %50 = load i8, ptr %7, align 1, !range !4, !noundef !5
  %51 = trunc i8 %50 to i1
  br i1 %51, label %52, label %55

52:                                               ; preds = %49
  %53 = load i32, ptr %11, align 4
  %54 = call zeroext i1 @wait_result_is_any_signal(i32 noundef %53, i1 noundef zeroext true)
  br label %55

55:                                               ; preds = %52, %49
  %56 = phi i1 [ false, %49 ], [ %54, %52 ]
  %57 = select i1 %56, i32 22, i32 19
  %58 = icmp sge i32 %57, 21
  br i1 %58, label %59, label %69

59:                                               ; preds = %55
  %60 = load i8, ptr %7, align 1, !range !4, !noundef !5
  %61 = trunc i8 %60 to i1
  br i1 %61, label %62, label %65

62:                                               ; preds = %59
  %63 = load i32, ptr %11, align 4
  %64 = call zeroext i1 @wait_result_is_any_signal(i32 noundef %63, i1 noundef zeroext true)
  br label %65

65:                                               ; preds = %62, %59
  %66 = phi i1 [ false, %59 ], [ %64, %62 ]
  %67 = select i1 %66, i32 22, i32 19
  %68 = call zeroext i1 @errstart_cold(i32 noundef %67, ptr noundef null) #13
  br i1 %68, label %79, label %85

69:                                               ; preds = %55, %48
  %70 = load i8, ptr %7, align 1, !range !4, !noundef !5
  %71 = trunc i8 %70 to i1
  br i1 %71, label %72, label %75

72:                                               ; preds = %69
  %73 = load i32, ptr %11, align 4
  %74 = call zeroext i1 @wait_result_is_any_signal(i32 noundef %73, i1 noundef zeroext true)
  br label %75

75:                                               ; preds = %72, %69
  %76 = phi i1 [ false, %69 ], [ %74, %72 ]
  %77 = select i1 %76, i32 22, i32 19
  %78 = call zeroext i1 @errstart(i32 noundef %77, ptr noundef null)
  br i1 %78, label %79, label %85

79:                                               ; preds = %75, %65
  %80 = load ptr, ptr %6, align 8
  %81 = load ptr, ptr %5, align 8
  %82 = load i32, ptr %11, align 4
  %83 = call ptr @wait_result_to_str(i32 noundef %82)
  %84 = call i32 (ptr, ...) @errmsg(ptr noundef @.str.12, ptr noundef %80, ptr noundef %81, ptr noundef %83)
  call void @errfinish(ptr noundef @.str.3, i32 noundef 347, ptr noundef @__func__.ExecuteRecoveryCommand)
  br label %85

85:                                               ; preds = %79, %75, %65
  br label %86

86:                                               ; preds = %85
  br label %87

87:                                               ; preds = %86
  br label %88

88:                                               ; preds = %87, %39
  call void @llvm.lifetime.end.p0(i64 4, ptr %14) #10
  call void @llvm.lifetime.end.p0(i64 8, ptr %13) #10
  call void @llvm.lifetime.end.p0(i64 8, ptr %12) #10
  call void @llvm.lifetime.end.p0(i64 4, ptr %11) #10
  call void @llvm.lifetime.end.p0(i64 1024, ptr %10) #10
  call void @llvm.lifetime.end.p0(i64 8, ptr %9) #10
  ret void
}