; Function Attrs: nounwind uwtable
define dso_local void @ExecuteRecoveryCommand(ptr noundef %0, ptr noundef %1, i1 noundef zeroext %2, i32 noundef %3) local_unnamed_addr #0 {
  %5 = alloca [1024 x i8], align 16
  %6 = alloca i64, align 8
  %7 = alloca i32, align 4
  call void @llvm.lifetime.start.p0(i64 1024, ptr nonnull %5) #11
  call void @llvm.lifetime.start.p0(i64 8, ptr nonnull %6) #11
  call void @llvm.lifetime.start.p0(i64 4, ptr nonnull %7) #11
  call void @GetOldestRestartPoint(ptr noundef nonnull %6, ptr noundef nonnull %7) #11
  %8 = load i64, ptr %6, align 8
  %9 = load i32, ptr @wal_segment_size, align 4
  %10 = sext i32 %9 to i64
  %11 = udiv i64 %8, %10
  %12 = load i32, ptr %7, align 4
  %13 = udiv i64 4294967296, %10
  %14 = udiv i64 %11, %13
  %15 = trunc i64 %14 to i32
  %16 = urem i64 %11, %13
  %17 = trunc nuw i64 %16 to i32
  %18 = call i32 (ptr, i64, ptr, ...) @pg_snprintf(ptr noundef nonnull %5, i64 noundef 64, ptr noundef nonnull @.str.18, i32 noundef %12, i32 noundef %15, i32 noundef %17) #11
  %19 = call ptr (ptr, ptr, ptr, ...) @replace_percent_placeholders(ptr noundef %0, ptr noundef %1, ptr noundef nonnull @.str.10, ptr noundef nonnull %5) #11
  %20 = call zeroext i1 @errstart(i32 noundef 12, ptr noundef null) #11
  br i1 %20, label %21, label %23

21:                                               ; preds = %4
  %22 = call i32 (ptr, ...) @errmsg_internal(ptr noundef nonnull @.str.11, ptr noundef %1, ptr noundef %0) #11
  call void @errfinish(ptr noundef nonnull @.str.3, i32 noundef 323, ptr noundef nonnull @__func__.ExecuteRecoveryCommand) #11
  br label %23

23:                                               ; preds = %21, %4
  %24 = call i32 @fflush(ptr noundef null)
  %25 = load ptr, ptr @my_wait_event_info, align 8
  store volatile i32 %3, ptr %25, align 4
  %26 = call i32 @system(ptr noundef %19) #11
  %27 = load ptr, ptr @my_wait_event_info, align 8
  store volatile i32 0, ptr %27, align 4
  call void @pfree(ptr noundef %19) #11
  %.not = icmp eq i32 %26, 0
  br i1 %.not, label %38, label %28

28:                                               ; preds = %23
  br i1 %2, label %29, label %32

29:                                               ; preds = %28
  %30 = call zeroext i1 @wait_result_is_any_signal(i32 noundef %26, i1 noundef zeroext true) #11
  %31 = select i1 %30, i32 22, i32 19
  br label %32

32:                                               ; preds = %29, %28
  %33 = phi i32 [ 19, %28 ], [ %31, %29 ]
  %34 = call zeroext i1 @errstart(i32 noundef %33, ptr noundef null) #11
  br i1 %34, label %35, label %38

35:                                               ; preds = %32
  %36 = call ptr @wait_result_to_str(i32 noundef %26) #11
  %37 = call i32 (ptr, ...) @errmsg(ptr noundef nonnull @.str.12, ptr noundef %1, ptr noundef %0, ptr noundef %36) #11
  call void @errfinish(ptr noundef nonnull @.str.3, i32 noundef 347, ptr noundef nonnull @__func__.ExecuteRecoveryCommand) #11
  br label %38

38:                                               ; preds = %32, %35, %23
  call void @llvm.lifetime.end.p0(i64 4, ptr nonnull %7) #11
  call void @llvm.lifetime.end.p0(i64 8, ptr nonnull %6) #11
  call void @llvm.lifetime.end.p0(i64 1024, ptr nonnull %5) #11
  ret void
}